; Function Attrs: mustprogress nounwind willreturn uwtable
define void @Cec_ManFraStop(ptr noundef captures(none) %0) local_unnamed_addr #10 {
  %2 = getelementptr inbounds nuw i8, ptr %0, i64 16
  %3 = load ptr, ptr %2, align 8, !tbaa !120
  %4 = getelementptr inbounds nuw i8, ptr %3, i64 8
  %5 = load ptr, ptr %4, align 8, !tbaa !43
  %.not.i = icmp eq ptr %5, null
  br i1 %.not.i, label %7, label %6

6:                                                ; preds = %1
  tail call void @free(ptr noundef nonnull %5) #18
  br label %7

7:                                                ; preds = %1, %6
  tail call void @free(ptr noundef nonnull %3) #18
  tail call void @free(ptr noundef nonnull %0) #18
  ret void
}